target datalayout = "e-m:e-p270:32:32-p271:32:32-p272:64:64-i64:64-i128:128-f80:128-n8:16:32:64-S128"
target triple = "x86_64-pc-linux-gnu"

@.str.1 = private unnamed_addr constant [103 x i8] c"generated/home/dtcxzyw/WorkSpace/Projects/compilers/llvm-opt-benchmark/bench/hdf5/hdf5/src/H5FDspace.c\00", align 1
@H5E_VFL_g = external global i64, align 8
@__func__.H5FD_alloc = private unnamed_addr constant [11 x i8] c"H5FD_alloc\00", align 1
@H5E_CANTALLOC_g = external global i64, align 8
@.str.4 = private unnamed_addr constant [28 x i8] c"real 'alloc' request failed\00", align 1
@H5E_CANTMARKDIRTY_g = external global i64, align 8
@.str.5 = private unnamed_addr constant [33 x i8] c"unable to mark EOA info as dirty\00", align 1

; Function Attrs: nounwind uwtable
define i64 @H5FD_alloc(ptr noundef %0, i32 noundef %1, ptr noundef %2, i64 noundef %3, ptr noundef %4, ptr noundef %5) #0 {
  %7 = alloca ptr, align 8
  %8 = alloca i32, align 4
  %9 = alloca ptr, align 8
  %10 = alloca i64, align 8
  %11 = alloca ptr, align 8
  %12 = alloca ptr, align 8
  %13 = alloca i64, align 8
  %14 = alloca i8, align 1
  store ptr %0, ptr %7, align 8
  store i32 %1, ptr %8, align 4
  store ptr %2, ptr %9, align 8
  store i64 %3, ptr %10, align 8
  store ptr %4, ptr %11, align 8
  store ptr %5, ptr %12, align 8
  store i64 -1, ptr %13, align 8
  store i8 0, ptr %14, align 1
  %15 = load ptr, ptr %7, align 8
  %16 = load i32, ptr %8, align 4
  %17 = load i64, ptr %10, align 8
  %18 = load ptr, ptr %11, align 8
  %19 = load ptr, ptr %12, align 8
  %20 = call i64 @H5FD__alloc_real(ptr noundef %15, i32 noundef %16, i64 noundef %17, ptr noundef %18, ptr noundef %19)
  store i64 %20, ptr %13, align 8
  %21 = load i64, ptr %13, align 8
  %22 = icmp ne i64 %21, -1
  br i1 %22, label %38, label %23

23:                                               ; preds = %6
  br label %24

24:                                               ; preds = %23
  br label %25

25:                                               ; preds = %24
  br label %26

26:                                               ; preds = %25
  %27 = load i64, ptr @H5E_VFL_g, align 8
  %28 = load i64, ptr @H5E_CANTALLOC_g, align 8
  %29 = call i32 (ptr, ptr, i32, i64, i64, ptr, ...) @H5E_printf_stack(ptr noundef @.str.1, ptr noundef @__func__.H5FD_alloc, i32 noundef 241, i64 noundef %27, i64 noundef %28, ptr noundef @.str.4)
  br label %30

30:                                               ; preds = %26
  store i8 1, ptr %14, align 1
  %31 = load i8, ptr %14, align 1
  %32 = trunc i8 %31 to i1
  %33 = zext i1 %32 to i8
  store i8 %33, ptr %14, align 1
  br label %34

34:                                               ; preds = %30
  br label %35

35:                                               ; preds = %34
  store i64 -1, ptr %13, align 8
  br label %58

36:                                               ; No predecessors!
  br label %37

37:                                               ; preds = %36
  br label %38

38:                                               ; preds = %37, %6
  %39 = load ptr, ptr %9, align 8
  %40 = call i32 @H5F_eoa_dirty(ptr noundef %39)
  %41 = icmp slt i32 %40, 0
  br i1 %41, label %42, label %57

42:                                               ; preds = %38
  br label %43

43:                                               ; preds = %42
  br label %44

44:                                               ; preds = %43
  br label %45

45:                                               ; preds = %44
  %46 = load i64, ptr @H5E_VFL_g, align 8
  %47 = load i64, ptr @H5E_CANTMARKDIRTY_g, align 8
  %48 = call i32 (ptr, ptr, i32, i64, i64, ptr, ...) @H5E_printf_stack(ptr noundef @.str.1, ptr noundef @__func__.H5FD_alloc, i32 noundef 245, i64 noundef %46, i64 noundef %47, ptr noundef @.str.5)
  br label %49

49:                                               ; preds = %45
  store i8 1, ptr %14, align 1
  %50 = load i8, ptr %14, align 1
  %51 = trunc i8 %50 to i1
  %52 = zext i1 %51 to i8
  store i8 %52, ptr %14, align 1
  br label %53

53:                                               ; preds = %49
  br label %54

54:                                               ; preds = %53
  store i64 -1, ptr %13, align 8
  br label %58

55:                                               ; No predecessors!
  br label %56

56:                                               ; preds = %55
  br label %57

57:                                               ; preds = %56, %38
  br label %58

58:                                               ; preds = %57, %54, %35
  %59 = load i64, ptr %13, align 8
  ret i64 %59
}