; Function Attrs: nounwind uwtable
define i64 @H5FD_alloc(ptr noundef %0, i32 noundef %1, ptr noundef %2, i64 noundef %3, ptr noundef %4, ptr noundef %5) local_unnamed_addr #0 {
  %7 = tail call i64 @H5FD__alloc_real(ptr noundef %0, i32 noundef %1, i64 noundef %3, ptr noundef %4, ptr noundef %5)
  %.not = icmp eq i64 %7, -1
  br i1 %.not, label %8, label %12

8:                                                ; preds = %6
  %9 = load i64, ptr @H5E_VFL_g, align 8
  %10 = load i64, ptr @H5E_CANTALLOC_g, align 8
  %11 = tail call i32 (ptr, ptr, i32, i64, i64, ptr, ...) @H5E_printf_stack(ptr noundef nonnull @.str.1, ptr noundef nonnull @__func__.H5FD_alloc, i32 noundef 241, i64 noundef %9, i64 noundef %10, ptr noundef nonnull @.str.4) #2
  br label %19

12:                                               ; preds = %6
  %13 = tail call i32 @H5F_eoa_dirty(ptr noundef %2) #2
  %14 = icmp slt i32 %13, 0
  br i1 %14, label %15, label %19

15:                                               ; preds = %12
  %16 = load i64, ptr @H5E_VFL_g, align 8
  %17 = load i64, ptr @H5E_CANTMARKDIRTY_g, align 8
  %18 = tail call i32 (ptr, ptr, i32, i64, i64, ptr, ...) @H5E_printf_stack(ptr noundef nonnull @.str.1, ptr noundef nonnull @__func__.H5FD_alloc, i32 noundef 245, i64 noundef %16, i64 noundef %17, ptr noundef nonnull @.str.5) #2
  br label %19

19:                                               ; preds = %12, %15, %8
  %.0 = phi i64 [ -1, %15 ], [ %7, %12 ], [ -1, %8 ]
  ret i64 %.0
}